
out\Hello.out:     file format elf32-littlearm


Disassembly of section .text:

00000000 <__vector_table>:
   0:	20001488 	andcs	r1, r0, r8, lsl #9
   4:	00000335 	andeq	r0, r0, r5, lsr r3
	...

00000200 <__do_global_dtors_aux>:
 200:	b510      	push	{r4, lr}
 202:	4c05      	ldr	r4, [pc, #20]	; (218 <__do_global_dtors_aux+0x18>)
 204:	7823      	ldrb	r3, [r4, #0]
 206:	b933      	cbnz	r3, 216 <__do_global_dtors_aux+0x16>
 208:	4b04      	ldr	r3, [pc, #16]	; (21c <__do_global_dtors_aux+0x1c>)
 20a:	b113      	cbz	r3, 212 <__do_global_dtors_aux+0x12>
 20c:	4804      	ldr	r0, [pc, #16]	; (220 <__do_global_dtors_aux+0x20>)
 20e:	f3af 8000 	nop.w
 212:	2301      	movs	r3, #1
 214:	7023      	strb	r3, [r4, #0]
 216:	bd10      	pop	{r4, pc}
 218:	20000000 	.word	0x20000000
 21c:	00000000 	.word	0x00000000
 220:	000006c4 	.word	0x000006c4

00000224 <frame_dummy>:
 224:	b508      	push	{r3, lr}
 226:	4b03      	ldr	r3, [pc, #12]	; (234 <frame_dummy+0x10>)
 228:	b11b      	cbz	r3, 232 <frame_dummy+0xe>
 22a:	4903      	ldr	r1, [pc, #12]	; (238 <frame_dummy+0x14>)
 22c:	4803      	ldr	r0, [pc, #12]	; (23c <frame_dummy+0x18>)
 22e:	f3af 8000 	nop.w
 232:	bd08      	pop	{r3, pc}
 234:	00000000 	.word	0x00000000
 238:	20000004 	.word	0x20000004
 23c:	000006c4 	.word	0x000006c4

00000240 <_stack_init>:
 240:	f5a3 3a80 	sub.w	sl, r3, #65536	; 0x10000
 244:	4770      	bx	lr
 246:	bf00      	nop

00000248 <_mainCRTStartup>:
 248:	4b17      	ldr	r3, [pc, #92]	; (2a8 <_mainCRTStartup+0x60>)
 24a:	2b00      	cmp	r3, #0
 24c:	bf08      	it	eq
 24e:	4b13      	ldreq	r3, [pc, #76]	; (29c <_mainCRTStartup+0x54>)
 250:	469d      	mov	sp, r3
 252:	f7ff fff5 	bl	240 <_stack_init>
 256:	2100      	movs	r1, #0
 258:	468b      	mov	fp, r1
 25a:	460f      	mov	r7, r1
 25c:	4813      	ldr	r0, [pc, #76]	; (2ac <_mainCRTStartup+0x64>)
 25e:	4a14      	ldr	r2, [pc, #80]	; (2b0 <_mainCRTStartup+0x68>)
 260:	1a12      	subs	r2, r2, r0
 262:	f000 f8bb 	bl	3dc <memset>
 266:	4b0e      	ldr	r3, [pc, #56]	; (2a0 <_mainCRTStartup+0x58>)
 268:	2b00      	cmp	r3, #0
 26a:	d000      	beq.n	26e <_mainCRTStartup+0x26>
 26c:	4798      	blx	r3
 26e:	4b0d      	ldr	r3, [pc, #52]	; (2a4 <_mainCRTStartup+0x5c>)
 270:	2b00      	cmp	r3, #0
 272:	d000      	beq.n	276 <_mainCRTStartup+0x2e>
 274:	4798      	blx	r3
 276:	2000      	movs	r0, #0
 278:	2100      	movs	r1, #0
 27a:	0004      	movs	r4, r0
 27c:	000d      	movs	r5, r1
 27e:	480d      	ldr	r0, [pc, #52]	; (2b4 <_mainCRTStartup+0x6c>)
 280:	2800      	cmp	r0, #0
 282:	d002      	beq.n	28a <_mainCRTStartup+0x42>
 284:	480c      	ldr	r0, [pc, #48]	; (2b8 <_mainCRTStartup+0x70>)
 286:	f000 f967 	bl	558 <atexit>
 28a:	f000 f883 	bl	394 <__libc_init_array>
 28e:	0020      	movs	r0, r4
 290:	0029      	movs	r1, r5
 292:	f000 f813 	bl	2bc <main>
 296:	f000 f86d 	bl	374 <exit>
 29a:	bf00      	nop
 29c:	00080000 	.word	0x00080000
	...
 2ac:	20000000 	.word	0x20000000
 2b0:	20000044 	.word	0x20000044
 2b4:	00000559 	.word	0x00000559
 2b8:	00000565 	.word	0x00000565

000002bc <main>:
 2bc:	b538      	push	{r3, r4, r5, lr}
 2be:	4c05      	ldr	r4, [pc, #20]	; (2d4 <main+0x18>)
 2c0:	f104 050c 	add.w	r5, r4, #12
 2c4:	f814 0b01 	ldrb.w	r0, [r4], #1
 2c8:	f000 f820 	bl	30c <putchar>
 2cc:	42ac      	cmp	r4, r5
 2ce:	d1f9      	bne.n	2c4 <main+0x8>
 2d0:	bd38      	pop	{r3, r4, r5, pc}
 2d2:	bf00      	nop
 2d4:	00000668 	.word	0x00000668

000002d8 <openStdout>:
 2d8:	b500      	push	{lr}
 2da:	4a07      	ldr	r2, [pc, #28]	; (2f8 <openStdout+0x20>)
 2dc:	ca07      	ldmia	r2, {r0, r1, r2}
 2de:	b085      	sub	sp, #20
 2e0:	ab01      	add	r3, sp, #4
 2e2:	e883 0007 	stmia.w	r3, {r0, r1, r2}
 2e6:	4619      	mov	r1, r3
 2e8:	2001      	movs	r0, #1
 2ea:	f000 f833 	bl	354 <sendHost>
 2ee:	4b03      	ldr	r3, [pc, #12]	; (2fc <openStdout+0x24>)
 2f0:	6018      	str	r0, [r3, #0]
 2f2:	b005      	add	sp, #20
 2f4:	f85d fb04 	ldr.w	pc, [sp], #4
 2f8:	00000674 	.word	0x00000674
 2fc:	2000001c 	.word	0x2000001c

00000300 <closeStdout>:
 300:	4901      	ldr	r1, [pc, #4]	; (308 <closeStdout+0x8>)
 302:	2002      	movs	r0, #2
 304:	f000 b826 	b.w	354 <sendHost>
 308:	2000001c 	.word	0x2000001c

0000030c <putchar>:
 30c:	b500      	push	{lr}
 30e:	4b08      	ldr	r3, [pc, #32]	; (330 <putchar+0x24>)
 310:	b087      	sub	sp, #28
 312:	681b      	ldr	r3, [r3, #0]
 314:	9001      	str	r0, [sp, #4]
 316:	9303      	str	r3, [sp, #12]
 318:	aa01      	add	r2, sp, #4
 31a:	2301      	movs	r3, #1
 31c:	a903      	add	r1, sp, #12
 31e:	2005      	movs	r0, #5
 320:	e9cd 2304 	strd	r2, r3, [sp, #16]
 324:	f000 f816 	bl	354 <sendHost>
 328:	9801      	ldr	r0, [sp, #4]
 32a:	b007      	add	sp, #28
 32c:	f85d fb04 	ldr.w	pc, [sp], #4
 330:	2000001c 	.word	0x2000001c

00000334 <_lowstart>:
 334:	480b      	ldr	r0, [pc, #44]	; (364 <.jump_to_exit+0x8>)
 336:	4685      	mov	sp, r0
 338:	490b      	ldr	r1, [pc, #44]	; (368 <.jump_to_exit+0xc>)
 33a:	4a0c      	ldr	r2, [pc, #48]	; (36c <.jump_to_exit+0x10>)
 33c:	1a52      	subs	r2, r2, r1
 33e:	dd03      	ble.n	348 <_lowstart+0x14>
 340:	2000      	movs	r0, #0
 342:	5088      	str	r0, [r1, r2]
 344:	3a04      	subs	r2, #4
 346:	dafc      	bge.n	342 <_lowstart+0xe>
 348:	f7ff ffc6 	bl	2d8 <openStdout>
 34c:	f7ff ffb6 	bl	2bc <main>
 350:	f000 f810 	bl	374 <exit>

00000354 <sendHost>:
 354:	beab      	bkpt	0x00ab
 356:	4770      	bx	lr

00000358 <_exit>:
 358:	f7ff ffd2 	bl	300 <closeStdout>

0000035c <.jump_to_exit>:
 35c:	2018      	movs	r0, #24
 35e:	4904      	ldr	r1, [pc, #16]	; (370 <.jump_to_exit+0x14>)
 360:	beab      	bkpt	0x00ab
 362:	e7fb      	b.n	35c <.jump_to_exit>
 364:	20001488 	.word	0x20001488
 368:	20000000 	.word	0x20000000
 36c:	20000040 	.word	0x20000040
 370:	00020026 	.word	0x00020026

00000374 <exit>:
 374:	b508      	push	{r3, lr}
 376:	2100      	movs	r1, #0
 378:	4604      	mov	r4, r0
 37a:	f000 f88b 	bl	494 <__call_exitprocs>
 37e:	4b04      	ldr	r3, [pc, #16]	; (390 <exit+0x1c>)
 380:	6818      	ldr	r0, [r3, #0]
 382:	6bc3      	ldr	r3, [r0, #60]	; 0x3c
 384:	b103      	cbz	r3, 388 <exit+0x14>
 386:	4798      	blx	r3
 388:	4620      	mov	r0, r4
 38a:	f7ff ffe5 	bl	358 <_exit>
 38e:	bf00      	nop
 390:	00000684 	.word	0x00000684

00000394 <__libc_init_array>:
 394:	b570      	push	{r4, r5, r6, lr}
 396:	4e0d      	ldr	r6, [pc, #52]	; (3cc <__libc_init_array+0x38>)
 398:	4d0d      	ldr	r5, [pc, #52]	; (3d0 <__libc_init_array+0x3c>)
 39a:	1b76      	subs	r6, r6, r5
 39c:	10b6      	asrs	r6, r6, #2
 39e:	d006      	beq.n	3ae <__libc_init_array+0x1a>
 3a0:	2400      	movs	r4, #0
 3a2:	f855 3b04 	ldr.w	r3, [r5], #4
 3a6:	3401      	adds	r4, #1
 3a8:	4798      	blx	r3
 3aa:	42a6      	cmp	r6, r4
 3ac:	d1f9      	bne.n	3a2 <__libc_init_array+0xe>
 3ae:	4e09      	ldr	r6, [pc, #36]	; (3d4 <__libc_init_array+0x40>)
 3b0:	4d09      	ldr	r5, [pc, #36]	; (3d8 <__libc_init_array+0x44>)
 3b2:	1b76      	subs	r6, r6, r5
 3b4:	f000 f97a 	bl	6ac <_init>
 3b8:	10b6      	asrs	r6, r6, #2
 3ba:	d006      	beq.n	3ca <__libc_init_array+0x36>
 3bc:	2400      	movs	r4, #0
 3be:	f855 3b04 	ldr.w	r3, [r5], #4
 3c2:	3401      	adds	r4, #1
 3c4:	4798      	blx	r3
 3c6:	42a6      	cmp	r6, r4
 3c8:	d1f9      	bne.n	3be <__libc_init_array+0x2a>
 3ca:	bd70      	pop	{r4, r5, r6, pc}
	...

000003dc <memset>:
 3dc:	0783      	lsls	r3, r0, #30
 3de:	b530      	push	{r4, r5, lr}
 3e0:	d048      	beq.n	474 <memset+0x98>
 3e2:	1e54      	subs	r4, r2, #1
 3e4:	2a00      	cmp	r2, #0
 3e6:	d03f      	beq.n	468 <memset+0x8c>
 3e8:	b2ca      	uxtb	r2, r1
 3ea:	4603      	mov	r3, r0
 3ec:	e001      	b.n	3f2 <memset+0x16>
 3ee:	3c01      	subs	r4, #1
 3f0:	d33a      	bcc.n	468 <memset+0x8c>
 3f2:	f803 2b01 	strb.w	r2, [r3], #1
 3f6:	079d      	lsls	r5, r3, #30
 3f8:	d1f9      	bne.n	3ee <memset+0x12>
 3fa:	2c03      	cmp	r4, #3
 3fc:	d92d      	bls.n	45a <memset+0x7e>
 3fe:	b2cd      	uxtb	r5, r1
 400:	ea45 2505 	orr.w	r5, r5, r5, lsl #8
 404:	2c0f      	cmp	r4, #15
 406:	ea45 4505 	orr.w	r5, r5, r5, lsl #16
 40a:	d936      	bls.n	47a <memset+0x9e>
 40c:	f1a4 0210 	sub.w	r2, r4, #16
 410:	f022 0c0f 	bic.w	ip, r2, #15
 414:	f103 0e20 	add.w	lr, r3, #32
 418:	44e6      	add	lr, ip
 41a:	ea4f 1c12 	mov.w	ip, r2, lsr #4
 41e:	f103 0210 	add.w	r2, r3, #16
 422:	e942 5504 	strd	r5, r5, [r2, #-16]
 426:	e942 5502 	strd	r5, r5, [r2, #-8]
 42a:	3210      	adds	r2, #16
 42c:	4572      	cmp	r2, lr
 42e:	d1f8      	bne.n	422 <memset+0x46>
 430:	f10c 0201 	add.w	r2, ip, #1
 434:	f014 0f0c 	tst.w	r4, #12
 438:	eb03 1202 	add.w	r2, r3, r2, lsl #4
 43c:	f004 0c0f 	and.w	ip, r4, #15
 440:	d013      	beq.n	46a <memset+0x8e>
 442:	f1ac 0304 	sub.w	r3, ip, #4
 446:	f023 0303 	bic.w	r3, r3, #3
 44a:	3304      	adds	r3, #4
 44c:	4413      	add	r3, r2
 44e:	f842 5b04 	str.w	r5, [r2], #4
 452:	4293      	cmp	r3, r2
 454:	d1fb      	bne.n	44e <memset+0x72>
 456:	f00c 0403 	and.w	r4, ip, #3
 45a:	b12c      	cbz	r4, 468 <memset+0x8c>
 45c:	b2ca      	uxtb	r2, r1
 45e:	441c      	add	r4, r3
 460:	f803 2b01 	strb.w	r2, [r3], #1
 464:	429c      	cmp	r4, r3
 466:	d1fb      	bne.n	460 <memset+0x84>
 468:	bd30      	pop	{r4, r5, pc}
 46a:	4664      	mov	r4, ip
 46c:	4613      	mov	r3, r2
 46e:	2c00      	cmp	r4, #0
 470:	d1f4      	bne.n	45c <memset+0x80>
 472:	e7f9      	b.n	468 <memset+0x8c>
 474:	4603      	mov	r3, r0
 476:	4614      	mov	r4, r2
 478:	e7bf      	b.n	3fa <memset+0x1e>
 47a:	461a      	mov	r2, r3
 47c:	46a4      	mov	ip, r4
 47e:	e7e0      	b.n	442 <memset+0x66>

00000480 <register_fini>:
 480:	4b02      	ldr	r3, [pc, #8]	; (48c <register_fini+0xc>)
 482:	b113      	cbz	r3, 48a <register_fini+0xa>
 484:	4802      	ldr	r0, [pc, #8]	; (490 <register_fini+0x10>)
 486:	f000 b867 	b.w	558 <atexit>
 48a:	4770      	bx	lr
 48c:	00000000 	.word	0x00000000
 490:	00000565 	.word	0x00000565

00000494 <__call_exitprocs>:
 494:	e92d 4ff0 	stmdb	sp!, {r4, r5, r6, r7, r8, r9, sl, fp, lr}
 498:	4b2d      	ldr	r3, [pc, #180]	; (550 <__call_exitprocs+0xbc>)
 49a:	b083      	sub	sp, #12
 49c:	4683      	mov	fp, r0
 49e:	6818      	ldr	r0, [r3, #0]
 4a0:	f8cd b004 	str.w	fp, [sp, #4]
 4a4:	460f      	mov	r7, r1
 4a6:	f000 f87d 	bl	5a4 <__retarget_lock_acquire_recursive>
 4aa:	4b2a      	ldr	r3, [pc, #168]	; (554 <__call_exitprocs+0xc0>)
 4ac:	f8d3 8000 	ldr.w	r8, [r3]
 4b0:	f8d8 6148 	ldr.w	r6, [r8, #328]	; 0x148
 4b4:	b19e      	cbz	r6, 4de <__call_exitprocs+0x4a>
 4b6:	f04f 0901 	mov.w	r9, #1
 4ba:	f04f 0a00 	mov.w	sl, #0
 4be:	6874      	ldr	r4, [r6, #4]
 4c0:	1e65      	subs	r5, r4, #1
 4c2:	d40c      	bmi.n	4de <__call_exitprocs+0x4a>
 4c4:	3401      	adds	r4, #1
 4c6:	eb06 0484 	add.w	r4, r6, r4, lsl #2
 4ca:	b17f      	cbz	r7, 4ec <__call_exitprocs+0x58>
 4cc:	f8d4 3100 	ldr.w	r3, [r4, #256]	; 0x100
 4d0:	42bb      	cmp	r3, r7
 4d2:	d00b      	beq.n	4ec <__call_exitprocs+0x58>
 4d4:	3d01      	subs	r5, #1
 4d6:	1c6b      	adds	r3, r5, #1
 4d8:	f1a4 0404 	sub.w	r4, r4, #4
 4dc:	d1f5      	bne.n	4ca <__call_exitprocs+0x36>
 4de:	4b1c      	ldr	r3, [pc, #112]	; (550 <__call_exitprocs+0xbc>)
 4e0:	6818      	ldr	r0, [r3, #0]
 4e2:	b003      	add	sp, #12
 4e4:	e8bd 4ff0 	ldmia.w	sp!, {r4, r5, r6, r7, r8, r9, sl, fp, lr}
 4e8:	f000 b864 	b.w	5b4 <__retarget_lock_release_recursive>
 4ec:	6873      	ldr	r3, [r6, #4]
 4ee:	6822      	ldr	r2, [r4, #0]
 4f0:	3b01      	subs	r3, #1
 4f2:	42ab      	cmp	r3, r5
 4f4:	bf0c      	ite	eq
 4f6:	6075      	streq	r5, [r6, #4]
 4f8:	f8c4 a000 	strne.w	sl, [r4]
 4fc:	2a00      	cmp	r2, #0
 4fe:	d0e9      	beq.n	4d4 <__call_exitprocs+0x40>
 500:	f8d6 0188 	ldr.w	r0, [r6, #392]	; 0x188
 504:	f8d6 b004 	ldr.w	fp, [r6, #4]
 508:	fa09 f105 	lsl.w	r1, r9, r5
 50c:	4201      	tst	r1, r0
 50e:	d10b      	bne.n	528 <__call_exitprocs+0x94>
 510:	4790      	blx	r2
 512:	6872      	ldr	r2, [r6, #4]
 514:	455a      	cmp	r2, fp
 516:	d112      	bne.n	53e <__call_exitprocs+0xaa>
 518:	f8d8 3148 	ldr.w	r3, [r8, #328]	; 0x148
 51c:	42b3      	cmp	r3, r6
 51e:	d0d9      	beq.n	4d4 <__call_exitprocs+0x40>
 520:	461e      	mov	r6, r3
 522:	2e00      	cmp	r6, #0
 524:	d1cb      	bne.n	4be <__call_exitprocs+0x2a>
 526:	e7da      	b.n	4de <__call_exitprocs+0x4a>
 528:	f8d6 018c 	ldr.w	r0, [r6, #396]	; 0x18c
 52c:	4201      	tst	r1, r0
 52e:	d10b      	bne.n	548 <__call_exitprocs+0xb4>
 530:	f8d4 1080 	ldr.w	r1, [r4, #128]	; 0x80
 534:	9801      	ldr	r0, [sp, #4]
 536:	4790      	blx	r2
 538:	6872      	ldr	r2, [r6, #4]
 53a:	455a      	cmp	r2, fp
 53c:	d0ec      	beq.n	518 <__call_exitprocs+0x84>
 53e:	f8d8 6148 	ldr.w	r6, [r8, #328]	; 0x148
 542:	2e00      	cmp	r6, #0
 544:	d1bb      	bne.n	4be <__call_exitprocs+0x2a>
 546:	e7ca      	b.n	4de <__call_exitprocs+0x4a>
 548:	f8d4 0080 	ldr.w	r0, [r4, #128]	; 0x80
 54c:	4790      	blx	r2
 54e:	e7e0      	b.n	512 <__call_exitprocs+0x7e>
 550:	20000478 	.word	0x20000478
 554:	00000684 	.word	0x00000684

00000558 <atexit>:
 558:	2300      	movs	r3, #0
 55a:	4601      	mov	r1, r0
 55c:	461a      	mov	r2, r3
 55e:	4618      	mov	r0, r3
 560:	f000 b82a 	b.w	5b8 <__register_exitproc>

00000564 <__libc_fini_array>:
 564:	b538      	push	{r3, r4, r5, lr}
 566:	4b08      	ldr	r3, [pc, #32]	; (588 <__libc_fini_array+0x24>)
 568:	4d08      	ldr	r5, [pc, #32]	; (58c <__libc_fini_array+0x28>)
 56a:	1b5b      	subs	r3, r3, r5
 56c:	109c      	asrs	r4, r3, #2
 56e:	d007      	beq.n	580 <__libc_fini_array+0x1c>
 570:	3b04      	subs	r3, #4
 572:	441d      	add	r5, r3
 574:	3c01      	subs	r4, #1
 576:	f855 3904 	ldr.w	r3, [r5], #-4
 57a:	4798      	blx	r3
 57c:	2c00      	cmp	r4, #0
 57e:	d1f9      	bne.n	574 <__libc_fini_array+0x10>
 580:	e8bd 4038 	ldmia.w	sp!, {r3, r4, r5, lr}
 584:	f000 b898 	b.w	6b8 <_fini>
	...

00000590 <__retarget_lock_init>:
 590:	4770      	bx	lr
 592:	bf00      	nop

00000594 <__retarget_lock_init_recursive>:
 594:	4770      	bx	lr
 596:	bf00      	nop

00000598 <__retarget_lock_close>:
 598:	4770      	bx	lr
 59a:	bf00      	nop

0000059c <__retarget_lock_close_recursive>:
 59c:	4770      	bx	lr
 59e:	bf00      	nop

000005a0 <__retarget_lock_acquire>:
 5a0:	4770      	bx	lr
 5a2:	bf00      	nop

000005a4 <__retarget_lock_acquire_recursive>:
 5a4:	4770      	bx	lr
 5a6:	bf00      	nop

000005a8 <__retarget_lock_try_acquire>:
 5a8:	2001      	movs	r0, #1
 5aa:	4770      	bx	lr

000005ac <__retarget_lock_try_acquire_recursive>:
 5ac:	2001      	movs	r0, #1
 5ae:	4770      	bx	lr

000005b0 <__retarget_lock_release>:
 5b0:	4770      	bx	lr
 5b2:	bf00      	nop

000005b4 <__retarget_lock_release_recursive>:
 5b4:	4770      	bx	lr
 5b6:	bf00      	nop

000005b8 <__register_exitproc>:
 5b8:	e92d 47f0 	stmdb	sp!, {r4, r5, r6, r7, r8, r9, sl, lr}
 5bc:	f8df a07c 	ldr.w	sl, [pc, #124]	; 63c <__register_exitproc+0x84>
 5c0:	4606      	mov	r6, r0
 5c2:	f8da 0000 	ldr.w	r0, [sl]
 5c6:	4698      	mov	r8, r3
 5c8:	460f      	mov	r7, r1
 5ca:	4691      	mov	r9, r2
 5cc:	f7ff ffea 	bl	5a4 <__retarget_lock_acquire_recursive>
 5d0:	4b1b      	ldr	r3, [pc, #108]	; (640 <__register_exitproc+0x88>)
 5d2:	681b      	ldr	r3, [r3, #0]
 5d4:	f8d3 4148 	ldr.w	r4, [r3, #328]	; 0x148
 5d8:	b324      	cbz	r4, 624 <__register_exitproc+0x6c>
 5da:	6865      	ldr	r5, [r4, #4]
 5dc:	2d1f      	cmp	r5, #31
 5de:	dc26      	bgt.n	62e <__register_exitproc+0x76>
 5e0:	b95e      	cbnz	r6, 5fa <__register_exitproc+0x42>
 5e2:	1c6b      	adds	r3, r5, #1
 5e4:	3502      	adds	r5, #2
 5e6:	f8da 0000 	ldr.w	r0, [sl]
 5ea:	6063      	str	r3, [r4, #4]
 5ec:	f844 7025 	str.w	r7, [r4, r5, lsl #2]
 5f0:	f7ff ffe0 	bl	5b4 <__retarget_lock_release_recursive>
 5f4:	2000      	movs	r0, #0
 5f6:	e8bd 87f0 	ldmia.w	sp!, {r4, r5, r6, r7, r8, r9, sl, pc}
 5fa:	eb04 0185 	add.w	r1, r4, r5, lsl #2
 5fe:	2301      	movs	r3, #1
 600:	f8c1 9088 	str.w	r9, [r1, #136]	; 0x88
 604:	f8d4 2188 	ldr.w	r2, [r4, #392]	; 0x188
 608:	40ab      	lsls	r3, r5
 60a:	431a      	orrs	r2, r3
 60c:	2e02      	cmp	r6, #2
 60e:	f8c4 2188 	str.w	r2, [r4, #392]	; 0x188
 612:	f8c1 8108 	str.w	r8, [r1, #264]	; 0x108
 616:	d1e4      	bne.n	5e2 <__register_exitproc+0x2a>
 618:	f8d4 218c 	ldr.w	r2, [r4, #396]	; 0x18c
 61c:	4313      	orrs	r3, r2
 61e:	f8c4 318c 	str.w	r3, [r4, #396]	; 0x18c
 622:	e7de      	b.n	5e2 <__register_exitproc+0x2a>
 624:	f503 74a6 	add.w	r4, r3, #332	; 0x14c
 628:	f8c3 4148 	str.w	r4, [r3, #328]	; 0x148
 62c:	e7d5      	b.n	5da <__register_exitproc+0x22>
 62e:	f8da 0000 	ldr.w	r0, [sl]
 632:	f7ff ffbf 	bl	5b4 <__retarget_lock_release_recursive>
 636:	f04f 30ff 	mov.w	r0, #4294967295
 63a:	e7dc      	b.n	5f6 <__register_exitproc+0x3e>
 63c:	20000478 	.word	0x20000478
 640:	00000684 	.word	0x00000684

00000644 <all_implied_fbits>:
 644:	3e0b3e3b 3e253e10 3e033e33 3e143e06     ;>.>.>%>3>.>.>.>
 654:	3e0d3e0e 3e123e24 3e023e27 3e093e18     .>.>$>.>'>.>.>.>
 664:	00003e0a                                .>..

00000668 <prompt>:
 668:	6c6c6548 6f57206f 00646c72 00000680     Hello World.....
 678:	00000004 00000003                       ........

00000680 <mStdoutName>:
 680:	0074743a                                :tt.

00000684 <_global_impure_ptr>:
 684:	20000050                                P.. 

00000688 <all_implied_fbits>:
 688:	3e0b3e3b 3e253e10 3e033e33 3e143e06     ;>.>.>%>3>.>.>.>
 698:	3e0d3e0e 3e123e24 3e023e27 3e093e18     .>.>$>.>'>.>.>.>
 6a8:	00003e0a                                .>..

Disassembly of section .init:

000006ac <_init>:
 6ac:	b5f8      	push	{r3, r4, r5, r6, r7, lr}
 6ae:	bf00      	nop
 6b0:	bcf8      	pop	{r3, r4, r5, r6, r7}
 6b2:	bc08      	pop	{r3}
 6b4:	469e      	mov	lr, r3
 6b6:	4770      	bx	lr

Disassembly of section .fini:

000006b8 <_fini>:
 6b8:	b5f8      	push	{r3, r4, r5, r6, r7, lr}
 6ba:	bf00      	nop
 6bc:	bcf8      	pop	{r3, r4, r5, r6, r7}
 6be:	bc08      	pop	{r3}
 6c0:	469e      	mov	lr, r3
 6c2:	4770      	bx	lr
